
_affiche:

;MyProject.c,42 :: 		void affiche()
;MyProject.c,44 :: 		if(sec==60)
	MOVLW      0
	XORWF      _sec+1, 0
	BTFSS      STATUS+0, 2
	GOTO       L__affiche48
	MOVLW      60
	XORWF      _sec+0, 0
L__affiche48:
	BTFSS      STATUS+0, 2
	GOTO       L_affiche0
;MyProject.c,46 :: 		minutes++;
	INCF       _minutes+0, 1
	BTFSC      STATUS+0, 2
	INCF       _minutes+1, 1
;MyProject.c,47 :: 		sec=0;
	CLRF       _sec+0
	CLRF       _sec+1
;MyProject.c,49 :: 		}
L_affiche0:
;MyProject.c,50 :: 		ByteToStr(sec, snum);
	MOVF       _sec+0, 0
	MOVWF      FARG_ByteToStr_input+0
	MOVLW      _snum+0
	MOVWF      FARG_ByteToStr_output+0
	CALL       _ByteToStr+0
;MyProject.c,51 :: 		ByteToStr(minutes, mnum);
	MOVF       _minutes+0, 0
	MOVWF      FARG_ByteToStr_input+0
	MOVLW      _mnum+0
	MOVWF      FARG_ByteToStr_output+0
	CALL       _ByteToStr+0
;MyProject.c,53 :: 		lcd_out(2,4,mnum);
	MOVLW      2
	MOVWF      FARG_Lcd_Out_row+0
	MOVLW      4
	MOVWF      FARG_Lcd_Out_column+0
	MOVLW      _mnum+0
	MOVWF      FARG_Lcd_Out_text+0
	CALL       _Lcd_Out+0
;MyProject.c,54 :: 		lcd_chr(2,8,':');
	MOVLW      2
	MOVWF      FARG_Lcd_Chr_row+0
	MOVLW      8
	MOVWF      FARG_Lcd_Chr_column+0
	MOVLW      58
	MOVWF      FARG_Lcd_Chr_out_char+0
	CALL       _Lcd_Chr+0
;MyProject.c,55 :: 		lcd_out(2,9,snum);
	MOVLW      2
	MOVWF      FARG_Lcd_Out_row+0
	MOVLW      9
	MOVWF      FARG_Lcd_Out_column+0
	MOVLW      _snum+0
	MOVWF      FARG_Lcd_Out_text+0
	CALL       _Lcd_Out+0
;MyProject.c,56 :: 		}
L_end_affiche:
	RETURN
; end of _affiche

_ecrire:

;MyProject.c,58 :: 		void ecrire(char chx[20])
;MyProject.c,60 :: 		int ok=1;
	MOVLW      1
	MOVWF      ecrire_ok_L0+0
	MOVLW      0
	MOVWF      ecrire_ok_L0+1
;MyProject.c,62 :: 		while(ok)
L_ecrire1:
	MOVF       ecrire_ok_L0+0, 0
	IORWF      ecrire_ok_L0+1, 0
	BTFSC      STATUS+0, 2
	GOTO       L_ecrire2
;MyProject.c,64 :: 		PORTD.RD0=1;            //tester sur la 3eme colonne
	BSF        PORTD+0, 0
;MyProject.c,65 :: 		if(PORTD.RD4==1) {LCD_CHR_CP(51);strcat(chx,"3");}//3
	BTFSS      PORTD+0, 4
	GOTO       L_ecrire3
	MOVLW      51
	MOVWF      FARG_Lcd_Chr_CP_out_char+0
	CALL       _Lcd_Chr_CP+0
	MOVF       FARG_ecrire_chx+0, 0
	MOVWF      FARG_strcat_to+0
	MOVLW      ?lstr1_MyProject+0
	MOVWF      FARG_strcat_from+0
	CALL       _strcat+0
L_ecrire3:
;MyProject.c,66 :: 		if(PORTD.RD5==1) {LCD_CHR_CP(54);strcat(chx,"6");}//6
	BTFSS      PORTD+0, 5
	GOTO       L_ecrire4
	MOVLW      54
	MOVWF      FARG_Lcd_Chr_CP_out_char+0
	CALL       _Lcd_Chr_CP+0
	MOVF       FARG_ecrire_chx+0, 0
	MOVWF      FARG_strcat_to+0
	MOVLW      ?lstr2_MyProject+0
	MOVWF      FARG_strcat_from+0
	CALL       _strcat+0
L_ecrire4:
;MyProject.c,67 :: 		if(PORTD.RD6==1) {LCD_CHR_CP(57);strcat(chx,"9");}//9
	BTFSS      PORTD+0, 6
	GOTO       L_ecrire5
	MOVLW      57
	MOVWF      FARG_Lcd_Chr_CP_out_char+0
	CALL       _Lcd_Chr_CP+0
	MOVF       FARG_ecrire_chx+0, 0
	MOVWF      FARG_strcat_to+0
	MOVLW      ?lstr3_MyProject+0
	MOVWF      FARG_strcat_from+0
	CALL       _strcat+0
L_ecrire5:
;MyProject.c,68 :: 		if(PORTD.RD7==1) {x++;ok=0;PORTD=0;}//#
	BTFSS      PORTD+0, 7
	GOTO       L_ecrire6
	INCF       _x+0, 1
	BTFSC      STATUS+0, 2
	INCF       _x+1, 1
	CLRF       ecrire_ok_L0+0
	CLRF       ecrire_ok_L0+1
	CLRF       PORTD+0
L_ecrire6:
;MyProject.c,69 :: 		PORTD=0;//reinit le pavé
	CLRF       PORTD+0
;MyProject.c,71 :: 		PORTD.RD1=1;            //tester sur la 2eme colonne
	BSF        PORTD+0, 1
;MyProject.c,72 :: 		if(PORTD.RD4==1) {LCD_CHR_CP(50);strcat(chx,"2");}//2
	BTFSS      PORTD+0, 4
	GOTO       L_ecrire7
	MOVLW      50
	MOVWF      FARG_Lcd_Chr_CP_out_char+0
	CALL       _Lcd_Chr_CP+0
	MOVF       FARG_ecrire_chx+0, 0
	MOVWF      FARG_strcat_to+0
	MOVLW      ?lstr4_MyProject+0
	MOVWF      FARG_strcat_from+0
	CALL       _strcat+0
L_ecrire7:
;MyProject.c,73 :: 		if(PORTD.RD5==1) {LCD_CHR_CP(53);strcat(chx,"5");}//5
	BTFSS      PORTD+0, 5
	GOTO       L_ecrire8
	MOVLW      53
	MOVWF      FARG_Lcd_Chr_CP_out_char+0
	CALL       _Lcd_Chr_CP+0
	MOVF       FARG_ecrire_chx+0, 0
	MOVWF      FARG_strcat_to+0
	MOVLW      ?lstr5_MyProject+0
	MOVWF      FARG_strcat_from+0
	CALL       _strcat+0
L_ecrire8:
;MyProject.c,74 :: 		if(PORTD.RD6==1) {LCD_CHR_CP(56);strcat(chx,"8");}//8
	BTFSS      PORTD+0, 6
	GOTO       L_ecrire9
	MOVLW      56
	MOVWF      FARG_Lcd_Chr_CP_out_char+0
	CALL       _Lcd_Chr_CP+0
	MOVF       FARG_ecrire_chx+0, 0
	MOVWF      FARG_strcat_to+0
	MOVLW      ?lstr6_MyProject+0
	MOVWF      FARG_strcat_from+0
	CALL       _strcat+0
L_ecrire9:
;MyProject.c,75 :: 		if(PORTD.RD7==1) {LCD_CHR_CP(48);strcat(chx,"0");}//0
	BTFSS      PORTD+0, 7
	GOTO       L_ecrire10
	MOVLW      48
	MOVWF      FARG_Lcd_Chr_CP_out_char+0
	CALL       _Lcd_Chr_CP+0
	MOVF       FARG_ecrire_chx+0, 0
	MOVWF      FARG_strcat_to+0
	MOVLW      ?lstr7_MyProject+0
	MOVWF      FARG_strcat_from+0
	CALL       _strcat+0
L_ecrire10:
;MyProject.c,76 :: 		PORTD=0;//reinit le pavé
	CLRF       PORTD+0
;MyProject.c,78 :: 		PORTD.RD2=1;            //tester sur la 1ere colonne
	BSF        PORTD+0, 2
;MyProject.c,79 :: 		if(PORTD.RD4==1) {LCD_CHR_CP(49);strcat(chx,"1");}//1
	BTFSS      PORTD+0, 4
	GOTO       L_ecrire11
	MOVLW      49
	MOVWF      FARG_Lcd_Chr_CP_out_char+0
	CALL       _Lcd_Chr_CP+0
	MOVF       FARG_ecrire_chx+0, 0
	MOVWF      FARG_strcat_to+0
	MOVLW      ?lstr8_MyProject+0
	MOVWF      FARG_strcat_from+0
	CALL       _strcat+0
L_ecrire11:
;MyProject.c,80 :: 		if(PORTD.RD5==1) {LCD_CHR_CP(52);strcat(chx,"4");}//4
	BTFSS      PORTD+0, 5
	GOTO       L_ecrire12
	MOVLW      52
	MOVWF      FARG_Lcd_Chr_CP_out_char+0
	CALL       _Lcd_Chr_CP+0
	MOVF       FARG_ecrire_chx+0, 0
	MOVWF      FARG_strcat_to+0
	MOVLW      ?lstr9_MyProject+0
	MOVWF      FARG_strcat_from+0
	CALL       _strcat+0
L_ecrire12:
;MyProject.c,81 :: 		if(PORTD.RD6==1) {LCD_CHR_CP(55);strcat(chx,"7");}//7
	BTFSS      PORTD+0, 6
	GOTO       L_ecrire13
	MOVLW      55
	MOVWF      FARG_Lcd_Chr_CP_out_char+0
	CALL       _Lcd_Chr_CP+0
	MOVF       FARG_ecrire_chx+0, 0
	MOVWF      FARG_strcat_to+0
	MOVLW      ?lstr10_MyProject+0
	MOVWF      FARG_strcat_from+0
	CALL       _strcat+0
L_ecrire13:
;MyProject.c,82 :: 		if(PORTD.RD7==1) {x=0;y=0;zz=0;lcd_cmd(_lcd_clear);strcpy(ch,"");strcpy(ch2,"");break;}//*
	BTFSS      PORTD+0, 7
	GOTO       L_ecrire14
	CLRF       _x+0
	CLRF       _x+1
	CLRF       _y+0
	CLRF       _y+1
	CLRF       _zz+0
	CLRF       _zz+1
	MOVLW      1
	MOVWF      FARG_Lcd_Cmd_out_char+0
	CALL       _Lcd_Cmd+0
	MOVLW      _ch+0
	MOVWF      FARG_strcpy_to+0
	MOVLW      ?lstr11_MyProject+0
	MOVWF      FARG_strcpy_from+0
	CALL       _strcpy+0
	MOVLW      _ch2+0
	MOVWF      FARG_strcpy_to+0
	MOVLW      ?lstr12_MyProject+0
	MOVWF      FARG_strcpy_from+0
	CALL       _strcpy+0
	GOTO       L_ecrire2
L_ecrire14:
;MyProject.c,83 :: 		PORTD=0;//reinit le pavé
	CLRF       PORTD+0
;MyProject.c,84 :: 		Delay_ms(200);
	MOVLW      3
	MOVWF      R11+0
	MOVLW      8
	MOVWF      R12+0
	MOVLW      119
	MOVWF      R13+0
L_ecrire15:
	DECFSZ     R13+0, 1
	GOTO       L_ecrire15
	DECFSZ     R12+0, 1
	GOTO       L_ecrire15
	DECFSZ     R11+0, 1
	GOTO       L_ecrire15
;MyProject.c,85 :: 		}
	GOTO       L_ecrire1
L_ecrire2:
;MyProject.c,86 :: 		}
L_end_ecrire:
	RETURN
; end of _ecrire

_main:

;MyProject.c,92 :: 		void main() {
;MyProject.c,93 :: 		INTCON.GIE=1;//ACTIVER INTERRUPTION
	BSF        INTCON+0, 7
;MyProject.c,94 :: 		INTCON.TMR0IE=1;//ACTIVER TIMER
	BSF        INTCON+0, 5
;MyProject.c,95 :: 		INTCON.RBIE=1;//ACTIVER RB4---RB7
	BSF        INTCON+0, 3
;MyProject.c,96 :: 		OPTION_REG.PSA=0;//ACTIVER LE PREDIVISEUR
	BCF        OPTION_REG+0, 3
;MyProject.c,97 :: 		OPTION_REG.PS2=OPTION_REG.PS1=OPTION_REG.PS0=1;//256 prediviseur
	BSF        OPTION_REG+0, 0
	BTFSC      OPTION_REG+0, 0
	GOTO       L__main51
	BCF        OPTION_REG+0, 1
	GOTO       L__main52
L__main51:
	BSF        OPTION_REG+0, 1
L__main52:
	BTFSC      OPTION_REG+0, 1
	GOTO       L__main53
	BCF        OPTION_REG+0, 2
	GOTO       L__main54
L__main53:
	BSF        OPTION_REG+0, 2
L__main54:
;MyProject.c,98 :: 		OPTIOn_reg.NOT_RBPU=1;//concerne rb0;     //not pull up resistors
	BSF        OPTION_REG+0, 7
;MyProject.c,99 :: 		OPTION_reg.INTEDG=1;//concerne RB0      1 front montant
	BSF        OPTION_REG+0, 6
;MyProject.c,100 :: 		OPTIOn_reg.T0CS=0;  //activer temporisateur
	BCF        OPTION_REG+0, 5
;MyProject.c,101 :: 		ADCON1=0X06;//CONFIGURER PORTA Comme digital
	MOVLW      6
	MOVWF      ADCON1+0
;MyProject.c,102 :: 		TRISB=0XFF;
	MOVLW      255
	MOVWF      TRISB+0
;MyProject.c,103 :: 		TRISA=0XFF;
	MOVLW      255
	MOVWF      TRISA+0
;MyProject.c,104 :: 		PORTA=0;
	CLRF       PORTA+0
;MyProject.c,105 :: 		PORTB=0;
	CLRF       PORTB+0
;MyProject.c,106 :: 		TRISD=0XF0;
	MOVLW      240
	MOVWF      TRISD+0
;MyProject.c,107 :: 		PORTD=0;//Init pour le pavé
	CLRF       PORTD+0
;MyProject.c,110 :: 		Lcd_Init();
	CALL       _Lcd_Init+0
;MyProject.c,111 :: 		lcd_out(1,1,"Temps");
	MOVLW      1
	MOVWF      FARG_Lcd_Out_row+0
	MOVLW      1
	MOVWF      FARG_Lcd_Out_column+0
	MOVLW      ?lstr13_MyProject+0
	MOVWF      FARG_Lcd_Out_text+0
	CALL       _Lcd_Out+0
;MyProject.c,112 :: 		LCD_cmd(_LCD_CURSOR_OFF);
	MOVLW      12
	MOVWF      FARG_Lcd_Cmd_out_char+0
	CALL       _Lcd_Cmd+0
;MyProject.c,113 :: 		while(1)
L_main16:
;MyProject.c,115 :: 		if(tmp)
	MOVF       _tmp+0, 0
	IORWF      _tmp+1, 0
	BTFSC      STATUS+0, 2
	GOTO       L_main18
;MyProject.c,116 :: 		affiche();
	CALL       _affiche+0
L_main18:
;MyProject.c,118 :: 		if(equipeA || equipeB)
	MOVF       _equipeA+0, 0
	IORWF      _equipeA+1, 0
	BTFSS      STATUS+0, 2
	GOTO       L__main45
	MOVF       _equipeB+0, 0
	IORWF      _equipeB+1, 0
	BTFSS      STATUS+0, 2
	GOTO       L__main45
	GOTO       L_main21
L__main45:
;MyProject.c,121 :: 		lcd_cmd(_lcd_clear);
	MOVLW      1
	MOVWF      FARG_Lcd_Cmd_out_char+0
	CALL       _Lcd_Cmd+0
;MyProject.c,122 :: 		lcd_out(1,1,"Demande");
	MOVLW      1
	MOVWF      FARG_Lcd_Out_row+0
	MOVLW      1
	MOVWF      FARG_Lcd_Out_column+0
	MOVLW      ?lstr14_MyProject+0
	MOVWF      FARG_Lcd_Out_text+0
	CALL       _Lcd_Out+0
;MyProject.c,123 :: 		if(equipeA)
	MOVF       _equipeA+0, 0
	IORWF      _equipeA+1, 0
	BTFSC      STATUS+0, 2
	GOTO       L_main22
;MyProject.c,125 :: 		lcd_out(2,1,"Equipe A");
	MOVLW      2
	MOVWF      FARG_Lcd_Out_row+0
	MOVLW      1
	MOVWF      FARG_Lcd_Out_column+0
	MOVLW      ?lstr15_MyProject+0
	MOVWF      FARG_Lcd_Out_text+0
	CALL       _Lcd_Out+0
;MyProject.c,126 :: 		equipeA=0;
	CLRF       _equipeA+0
	CLRF       _equipeA+1
;MyProject.c,128 :: 		}
L_main22:
;MyProject.c,129 :: 		if(equipeB)
	MOVF       _equipeB+0, 0
	IORWF      _equipeB+1, 0
	BTFSC      STATUS+0, 2
	GOTO       L_main23
;MyProject.c,131 :: 		lcd_out(2,1,"Equipe B");
	MOVLW      2
	MOVWF      FARG_Lcd_Out_row+0
	MOVLW      1
	MOVWF      FARG_Lcd_Out_column+0
	MOVLW      ?lstr16_MyProject+0
	MOVWF      FARG_Lcd_Out_text+0
	CALL       _Lcd_Out+0
;MyProject.c,132 :: 		equipeB=0;
	CLRF       _equipeB+0
	CLRF       _equipeB+1
;MyProject.c,134 :: 		}
L_main23:
;MyProject.c,135 :: 		Delay_ms(2000);
	MOVLW      21
	MOVWF      R11+0
	MOVLW      75
	MOVWF      R12+0
	MOVLW      190
	MOVWF      R13+0
L_main24:
	DECFSZ     R13+0, 1
	GOTO       L_main24
	DECFSZ     R12+0, 1
	GOTO       L_main24
	DECFSZ     R11+0, 1
	GOTO       L_main24
	NOP
;MyProject.c,136 :: 		if(x==0)
	MOVLW      0
	XORWF      _x+1, 0
	BTFSS      STATUS+0, 2
	GOTO       L__main55
	MOVLW      0
	XORWF      _x+0, 0
L__main55:
	BTFSS      STATUS+0, 2
	GOTO       L_main25
;MyProject.c,139 :: 		lcd_cmd(_lcd_clear);
	MOVLW      1
	MOVWF      FARG_Lcd_Cmd_out_char+0
	CALL       _Lcd_Cmd+0
;MyProject.c,140 :: 		lcd_out(1,1,"Joueur 1");
	MOVLW      1
	MOVWF      FARG_Lcd_Out_row+0
	MOVLW      1
	MOVWF      FARG_Lcd_Out_column+0
	MOVLW      ?lstr17_MyProject+0
	MOVWF      FARG_Lcd_Out_text+0
	CALL       _Lcd_Out+0
;MyProject.c,142 :: 		lcd_cmd(_LCD_SECOND_ROW);
	MOVLW      192
	MOVWF      FARG_Lcd_Cmd_out_char+0
	CALL       _Lcd_Cmd+0
;MyProject.c,143 :: 		ecrire(ch);
	MOVLW      _ch+0
	MOVWF      FARG_ecrire_chx+0
	CALL       _ecrire+0
;MyProject.c,144 :: 		} if(x==1)
L_main25:
	MOVLW      0
	XORWF      _x+1, 0
	BTFSS      STATUS+0, 2
	GOTO       L__main56
	MOVLW      1
	XORWF      _x+0, 0
L__main56:
	BTFSS      STATUS+0, 2
	GOTO       L_main26
;MyProject.c,146 :: 		lcd_cmd(_lcd_clear);
	MOVLW      1
	MOVWF      FARG_Lcd_Cmd_out_char+0
	CALL       _Lcd_Cmd+0
;MyProject.c,147 :: 		lcd_out(1,1,"Joueur 2");
	MOVLW      1
	MOVWF      FARG_Lcd_Out_row+0
	MOVLW      1
	MOVWF      FARG_Lcd_Out_column+0
	MOVLW      ?lstr18_MyProject+0
	MOVWF      FARG_Lcd_Out_text+0
	CALL       _Lcd_Out+0
;MyProject.c,149 :: 		lcd_cmd(_LCD_SECOND_ROW);
	MOVLW      192
	MOVWF      FARG_Lcd_Cmd_out_char+0
	CALL       _Lcd_Cmd+0
;MyProject.c,150 :: 		ecrire(ch2);
	MOVLW      _ch2+0
	MOVWF      FARG_ecrire_chx+0
	CALL       _ecrire+0
;MyProject.c,151 :: 		}
L_main26:
;MyProject.c,152 :: 		if(x==2)
	MOVLW      0
	XORWF      _x+1, 0
	BTFSS      STATUS+0, 2
	GOTO       L__main57
	MOVLW      2
	XORWF      _x+0, 0
L__main57:
	BTFSS      STATUS+0, 2
	GOTO       L_main27
;MyProject.c,154 :: 		x=0;
	CLRF       _x+0
	CLRF       _x+1
;MyProject.c,155 :: 		lcd_cmd(_lcd_clear);
	MOVLW      1
	MOVWF      FARG_Lcd_Cmd_out_char+0
	CALL       _Lcd_Cmd+0
;MyProject.c,156 :: 		LCD_OUT(1,2,"Changement");
	MOVLW      1
	MOVWF      FARG_Lcd_Out_row+0
	MOVLW      2
	MOVWF      FARG_Lcd_Out_column+0
	MOVLW      ?lstr19_MyProject+0
	MOVWF      FARG_Lcd_Out_text+0
	CALL       _Lcd_Out+0
;MyProject.c,157 :: 		LCD_out(2,2,ch);
	MOVLW      2
	MOVWF      FARG_Lcd_Out_row+0
	MOVLW      2
	MOVWF      FARG_Lcd_Out_column+0
	MOVLW      _ch+0
	MOVWF      FARG_Lcd_Out_text+0
	CALL       _Lcd_Out+0
;MyProject.c,158 :: 		lcd_out(2,5,"<---->");
	MOVLW      2
	MOVWF      FARG_Lcd_Out_row+0
	MOVLW      5
	MOVWF      FARG_Lcd_Out_column+0
	MOVLW      ?lstr20_MyProject+0
	MOVWF      FARG_Lcd_Out_text+0
	CALL       _Lcd_Out+0
;MyProject.c,159 :: 		lcd_out(2,13,ch2);
	MOVLW      2
	MOVWF      FARG_Lcd_Out_row+0
	MOVLW      13
	MOVWF      FARG_Lcd_Out_column+0
	MOVLW      _ch2+0
	MOVWF      FARG_Lcd_Out_text+0
	CALL       _Lcd_Out+0
;MyProject.c,160 :: 		strcpy(ch,"");
	MOVLW      _ch+0
	MOVWF      FARG_strcpy_to+0
	MOVLW      ?lstr21_MyProject+0
	MOVWF      FARG_strcpy_from+0
	CALL       _strcpy+0
;MyProject.c,161 :: 		strcpy(ch2,"");
	MOVLW      _ch2+0
	MOVWF      FARG_strcpy_to+0
	MOVLW      ?lstr22_MyProject+0
	MOVWF      FARG_strcpy_from+0
	CALL       _strcpy+0
;MyProject.c,162 :: 		Delay_ms(2000);
	MOVLW      21
	MOVWF      R11+0
	MOVLW      75
	MOVWF      R12+0
	MOVLW      190
	MOVWF      R13+0
L_main28:
	DECFSZ     R13+0, 1
	GOTO       L_main28
	DECFSZ     R12+0, 1
	GOTO       L_main28
	DECFSZ     R11+0, 1
	GOTO       L_main28
	NOP
;MyProject.c,163 :: 		y=0;
	CLRF       _y+0
	CLRF       _y+1
;MyProject.c,165 :: 		}
L_main27:
;MyProject.c,171 :: 		lcd_cmd(_lcd_clear);
	MOVLW      1
	MOVWF      FARG_Lcd_Cmd_out_char+0
	CALL       _Lcd_Cmd+0
;MyProject.c,172 :: 		lcd_out(1,1,"Temps");
	MOVLW      1
	MOVWF      FARG_Lcd_Out_row+0
	MOVLW      1
	MOVWF      FARG_Lcd_Out_column+0
	MOVLW      ?lstr23_MyProject+0
	MOVWF      FARG_Lcd_Out_text+0
	CALL       _Lcd_Out+0
;MyProject.c,173 :: 		tmp=1;
	MOVLW      1
	MOVWF      _tmp+0
	MOVLW      0
	MOVWF      _tmp+1
;MyProject.c,175 :: 		}
L_main21:
;MyProject.c,177 :: 		if(arbitre)
	MOVF       _arbitre+0, 0
	IORWF      _arbitre+1, 0
	BTFSC      STATUS+0, 2
	GOTO       L_main29
;MyProject.c,179 :: 		arbitre=0;
	CLRF       _arbitre+0
	CLRF       _arbitre+1
;MyProject.c,180 :: 		lcd_cmd(_lcd_clear);
	MOVLW      1
	MOVWF      FARG_Lcd_Cmd_out_char+0
	CALL       _Lcd_Cmd+0
;MyProject.c,181 :: 		lcd_out(1,1,"Temps +");
	MOVLW      1
	MOVWF      FARG_Lcd_Out_row+0
	MOVLW      1
	MOVWF      FARG_Lcd_Out_column+0
	MOVLW      ?lstr24_MyProject+0
	MOVWF      FARG_Lcd_Out_text+0
	CALL       _Lcd_Out+0
;MyProject.c,182 :: 		Delay_ms(2000);
	MOVLW      21
	MOVWF      R11+0
	MOVLW      75
	MOVWF      R12+0
	MOVLW      190
	MOVWF      R13+0
L_main30:
	DECFSZ     R13+0, 1
	GOTO       L_main30
	DECFSZ     R12+0, 1
	GOTO       L_main30
	DECFSZ     R11+0, 1
	GOTO       L_main30
	NOP
;MyProject.c,183 :: 		if(x==0)
	MOVLW      0
	XORWF      _x+1, 0
	BTFSS      STATUS+0, 2
	GOTO       L__main58
	MOVLW      0
	XORWF      _x+0, 0
L__main58:
	BTFSS      STATUS+0, 2
	GOTO       L_main31
;MyProject.c,185 :: 		lcd_cmd(_lcd_clear);
	MOVLW      1
	MOVWF      FARG_Lcd_Cmd_out_char+0
	CALL       _Lcd_Cmd+0
;MyProject.c,186 :: 		lcd_out(1,1,"Ajouter");
	MOVLW      1
	MOVWF      FARG_Lcd_Out_row+0
	MOVLW      1
	MOVWF      FARG_Lcd_Out_column+0
	MOVLW      ?lstr25_MyProject+0
	MOVWF      FARG_Lcd_Out_text+0
	CALL       _Lcd_Out+0
;MyProject.c,188 :: 		lcd_cmd(_LCD_SECOND_ROW);
	MOVLW      192
	MOVWF      FARG_Lcd_Cmd_out_char+0
	CALL       _Lcd_Cmd+0
;MyProject.c,189 :: 		ecrire(ch);
	MOVLW      _ch+0
	MOVWF      FARG_ecrire_chx+0
	CALL       _ecrire+0
;MyProject.c,191 :: 		}
L_main31:
;MyProject.c,192 :: 		if(x==1)
	MOVLW      0
	XORWF      _x+1, 0
	BTFSS      STATUS+0, 2
	GOTO       L__main59
	MOVLW      1
	XORWF      _x+0, 0
L__main59:
	BTFSS      STATUS+0, 2
	GOTO       L_main32
;MyProject.c,194 :: 		x=0;
	CLRF       _x+0
	CLRF       _x+1
;MyProject.c,195 :: 		lcd_cmd(_lcd_clear);
	MOVLW      1
	MOVWF      FARG_Lcd_Cmd_out_char+0
	CALL       _Lcd_Cmd+0
;MyProject.c,196 :: 		LCD_OUT(1,2,"Plus");
	MOVLW      1
	MOVWF      FARG_Lcd_Out_row+0
	MOVLW      2
	MOVWF      FARG_Lcd_Out_column+0
	MOVLW      ?lstr26_MyProject+0
	MOVWF      FARG_Lcd_Out_text+0
	CALL       _Lcd_Out+0
;MyProject.c,197 :: 		LCD_out(2,2,ch);
	MOVLW      2
	MOVWF      FARG_Lcd_Out_row+0
	MOVLW      2
	MOVWF      FARG_Lcd_Out_column+0
	MOVLW      _ch+0
	MOVWF      FARG_Lcd_Out_text+0
	CALL       _Lcd_Out+0
;MyProject.c,198 :: 		kk=atoi(ch);
	MOVLW      _ch+0
	MOVWF      FARG_atoi_s+0
	CALL       _atoi+0
	MOVF       R0+0, 0
	MOVWF      _kk+0
	MOVF       R0+1, 0
	MOVWF      _kk+1
;MyProject.c,201 :: 		strcpy(ch,"");
	MOVLW      _ch+0
	MOVWF      FARG_strcpy_to+0
	MOVLW      ?lstr27_MyProject+0
	MOVWF      FARG_strcpy_from+0
	CALL       _strcpy+0
;MyProject.c,202 :: 		Delay_ms(2000);
	MOVLW      21
	MOVWF      R11+0
	MOVLW      75
	MOVWF      R12+0
	MOVLW      190
	MOVWF      R13+0
L_main33:
	DECFSZ     R13+0, 1
	GOTO       L_main33
	DECFSZ     R12+0, 1
	GOTO       L_main33
	DECFSZ     R11+0, 1
	GOTO       L_main33
	NOP
;MyProject.c,203 :: 		y=0;
	CLRF       _y+0
	CLRF       _y+1
;MyProject.c,206 :: 		}
L_main32:
;MyProject.c,208 :: 		lcd_cmd(_lcd_clear);
	MOVLW      1
	MOVWF      FARG_Lcd_Cmd_out_char+0
	CALL       _Lcd_Cmd+0
;MyProject.c,209 :: 		lcd_out(1,1,"Temps");
	MOVLW      1
	MOVWF      FARG_Lcd_Out_row+0
	MOVLW      1
	MOVWF      FARG_Lcd_Out_column+0
	MOVLW      ?lstr28_MyProject+0
	MOVWF      FARG_Lcd_Out_text+0
	CALL       _Lcd_Out+0
;MyProject.c,210 :: 		tmp=1;
	MOVLW      1
	MOVWF      _tmp+0
	MOVLW      0
	MOVWF      _tmp+1
;MyProject.c,211 :: 		}
L_main29:
;MyProject.c,214 :: 		if(aaa==1)
	MOVLW      0
	XORWF      _aaa+1, 0
	BTFSS      STATUS+0, 2
	GOTO       L__main60
	MOVLW      1
	XORWF      _aaa+0, 0
L__main60:
	BTFSS      STATUS+0, 2
	GOTO       L_main34
;MyProject.c,216 :: 		aaa=0;
	CLRF       _aaa+0
	CLRF       _aaa+1
;MyProject.c,217 :: 		lcd_cmd(_lcd_clear);
	MOVLW      1
	MOVWF      FARG_Lcd_Cmd_out_char+0
	CALL       _Lcd_Cmd+0
;MyProject.c,218 :: 		lcd_out(1,1,"Mi temps");
	MOVLW      1
	MOVWF      FARG_Lcd_Out_row+0
	MOVLW      1
	MOVWF      FARG_Lcd_Out_column+0
	MOVLW      ?lstr29_MyProject+0
	MOVWF      FARG_Lcd_Out_text+0
	CALL       _Lcd_Out+0
;MyProject.c,219 :: 		Delay_ms(5000);
	MOVLW      51
	MOVWF      R11+0
	MOVLW      187
	MOVWF      R12+0
	MOVLW      223
	MOVWF      R13+0
L_main35:
	DECFSZ     R13+0, 1
	GOTO       L_main35
	DECFSZ     R12+0, 1
	GOTO       L_main35
	DECFSZ     R11+0, 1
	GOTO       L_main35
	NOP
	NOP
;MyProject.c,220 :: 		lcd_cmd(_lcd_clear);
	MOVLW      1
	MOVWF      FARG_Lcd_Cmd_out_char+0
	CALL       _Lcd_Cmd+0
;MyProject.c,222 :: 		return;
	GOTO       L_end_main
;MyProject.c,225 :: 		}
L_main34:
;MyProject.c,226 :: 		}
	GOTO       L_main16
;MyProject.c,227 :: 		}
L_end_main:
	GOTO       $+0
; end of _main

_interrupt:
	MOVWF      R15+0
	SWAPF      STATUS+0, 0
	CLRF       STATUS+0
	MOVWF      ___saveSTATUS+0
	MOVF       PCLATH+0, 0
	MOVWF      ___savePCLATH+0
	CLRF       PCLATH+0

;MyProject.c,231 :: 		void interrupt()
;MyProject.c,233 :: 		if(INTCON.RBIF==1)
	BTFSS      INTCON+0, 0
	GOTO       L_interrupt36
;MyProject.c,235 :: 		tmp=0;
	CLRF       _tmp+0
	CLRF       _tmp+1
;MyProject.c,236 :: 		if(PORTB.RB4==1)
	BTFSS      PORTB+0, 4
	GOTO       L_interrupt37
;MyProject.c,238 :: 		equipeA=1;
	MOVLW      1
	MOVWF      _equipeA+0
	MOVLW      0
	MOVWF      _equipeA+1
;MyProject.c,239 :: 		INTCON.RBIF=0;
	BCF        INTCON+0, 0
;MyProject.c,240 :: 		return;
	GOTO       L__interrupt62
;MyProject.c,241 :: 		}
L_interrupt37:
;MyProject.c,242 :: 		if(PORTB.RB5==1)
	BTFSS      PORTB+0, 5
	GOTO       L_interrupt38
;MyProject.c,244 :: 		equipeB=1;
	MOVLW      1
	MOVWF      _equipeB+0
	MOVLW      0
	MOVWF      _equipeB+1
;MyProject.c,245 :: 		INTCON.RBIF=0;
	BCF        INTCON+0, 0
;MyProject.c,246 :: 		return;
	GOTO       L__interrupt62
;MyProject.c,247 :: 		}
L_interrupt38:
;MyProject.c,248 :: 		if(PORTB.RB6==1)
	BTFSS      PORTB+0, 6
	GOTO       L_interrupt39
;MyProject.c,250 :: 		arbitre=1;
	MOVLW      1
	MOVWF      _arbitre+0
	MOVLW      0
	MOVWF      _arbitre+1
;MyProject.c,251 :: 		INTCON.RBIF=0;
	BCF        INTCON+0, 0
;MyProject.c,252 :: 		return;
	GOTO       L__interrupt62
;MyProject.c,253 :: 		}
L_interrupt39:
;MyProject.c,255 :: 		INTCON.RBIF=0;
	BCF        INTCON+0, 0
;MyProject.c,256 :: 		return;
	GOTO       L__interrupt62
;MyProject.c,258 :: 		}
L_interrupt36:
;MyProject.c,262 :: 		if(INTCON.TMR0IF==1)
	BTFSS      INTCON+0, 2
	GOTO       L_interrupt40
;MyProject.c,264 :: 		INTCON.TMR0IF=0;
	BCF        INTCON+0, 2
;MyProject.c,265 :: 		cmp++;
	INCF       _cmp+0, 1
	BTFSC      STATUS+0, 2
	INCF       _cmp+1, 1
;MyProject.c,266 :: 		if(minutes==final && sec==0)
	MOVF       _minutes+1, 0
	XORWF      _final+1, 0
	BTFSS      STATUS+0, 2
	GOTO       L__interrupt63
	MOVF       _final+0, 0
	XORWF      _minutes+0, 0
L__interrupt63:
	BTFSS      STATUS+0, 2
	GOTO       L_interrupt43
	MOVLW      0
	XORWF      _sec+1, 0
	BTFSS      STATUS+0, 2
	GOTO       L__interrupt64
	MOVLW      0
	XORWF      _sec+0, 0
L__interrupt64:
	BTFSS      STATUS+0, 2
	GOTO       L_interrupt43
L__interrupt46:
;MyProject.c,267 :: 		aaa=1;
	MOVLW      1
	MOVWF      _aaa+0
	MOVLW      0
	MOVWF      _aaa+1
L_interrupt43:
;MyProject.c,268 :: 		if(cmp==30)
	MOVLW      0
	XORWF      _cmp+1, 0
	BTFSS      STATUS+0, 2
	GOTO       L__interrupt65
	MOVLW      30
	XORWF      _cmp+0, 0
L__interrupt65:
	BTFSS      STATUS+0, 2
	GOTO       L_interrupt44
;MyProject.c,270 :: 		sec++;
	INCF       _sec+0, 1
	BTFSC      STATUS+0, 2
	INCF       _sec+1, 1
;MyProject.c,272 :: 		portb.b0=!portb.b0;
	MOVLW      1
	XORWF      PORTB+0, 1
;MyProject.c,273 :: 		cmp=0;
	CLRF       _cmp+0
	CLRF       _cmp+1
;MyProject.c,275 :: 		return;
	GOTO       L__interrupt62
;MyProject.c,276 :: 		}
L_interrupt44:
;MyProject.c,278 :: 		return;
	GOTO       L__interrupt62
;MyProject.c,279 :: 		}
L_interrupt40:
;MyProject.c,283 :: 		}
L_end_interrupt:
L__interrupt62:
	MOVF       ___savePCLATH+0, 0
	MOVWF      PCLATH+0
	SWAPF      ___saveSTATUS+0, 0
	MOVWF      STATUS+0
	SWAPF      R15+0, 1
	SWAPF      R15+0, 0
	RETFIE
; end of _interrupt
